target datalayout = "e-m:e-p270:32:32-p271:32:32-p272:64:64-i64:64-i128:128-f80:128-n8:16:32:64-S128"
target triple = "x86_64-pc-linux-gnu"

; Function Attrs: nounwind uwtable
define hidden i32 @gnu_debuglink_crc32(i32 noundef %0, ptr noundef %1, i64 noundef %2) #0 {
  %4 = alloca i32, align 4
  %5 = alloca ptr, align 8
  %6 = alloca i64, align 8
  %7 = alloca ptr, align 8
  store i32 %0, ptr %4, align 4
  store ptr %1, ptr %5, align 8
  store i64 %2, ptr %6, align 8
  %8 = load i32, ptr %4, align 4
  %9 = xor i32 %8, -1
  %10 = and i32 %9, -1
  store i32 %10, ptr %4, align 4
  %11 = load ptr, ptr %5, align 8
  %12 = load i64, ptr %6, align 8
  %13 = getelementptr inbounds i8, ptr %11, i64 %12
  store ptr %13, ptr %7, align 8
  br label %14

14:                                               ; preds = %31, %3
  %15 = load ptr, ptr %5, align 8
  %16 = load ptr, ptr %7, align 8
  %17 = icmp ult ptr %15, %16
  br i1 %17, label %18, label %34

18:                                               ; preds = %14
  %19 = load i32, ptr %4, align 4
  %20 = load ptr, ptr %5, align 8
  %21 = load i8, ptr %20, align 1
  %22 = zext i8 %21 to i32
  %23 = xor i32 %19, %22
  %24 = and i32 %23, 255
  %25 = zext i32 %24 to i64
  %26 = getelementptr inbounds [256 x i32], ptr @gnu_debuglink_crc32.crc32_table, i64 0, i64 %25
  %27 = load i32, ptr %26, align 4
  %28 = load i32, ptr %4, align 4
  %29 = lshr i32 %28, 8
  %30 = xor i32 %27, %29
  store i32 %30, ptr %4, align 4
  br label %31

31:                                               ; preds = %18
  %32 = load ptr, ptr %5, align 8
  %33 = getelementptr inbounds i8, ptr %32, i32 1
  store ptr %33, ptr %5, align 8
  br label %14, !llvm.loop !6

34:                                               ; preds = %14
  %35 = load i32, ptr %4, align 4
  %36 = xor i32 %35, -1
  %37 = and i32 %36, -1
  ret i32 %37
}

; Function Attrs: nounwind uwtable
define internal i32 @open_debug_file(ptr noundef %0, i32 noundef %1) #0 {
  %3 = alloca i32, align 4
  %4 = alloca ptr, align 8
  %5 = alloca i32, align 4
  %6 = alloca i32, align 4
  %7 = alloca [8192 x i8], align 16
  %8 = alloca i32, align 4
  %9 = alloca i32, align 4
  store ptr %0, ptr %4, align 8
  store i32 %1, ptr %5, align 4
  store i32 0, ptr %6, align 4
  %10 = load ptr, ptr %4, align 8
  %11 = call i32 @pathmap_open(ptr noundef %10)
  store i32 %11, ptr %8, align 4
  %12 = load i32, ptr %8, align 4
  %13 = icmp slt i32 %12, 0
  br i1 %13, label %14, label %15

14:                                               ; preds = %2
  store i32 -1, ptr %3, align 4
  br label %41

15:                                               ; preds = %2
  %16 = load i32, ptr %8, align 4
  %17 = call i64 @lseek64(i32 noundef %16, i64 noundef 0, i32 noundef 0) #7
  br label %18

18:                                               ; preds = %26, %15
  %19 = load i32, ptr %8, align 4
  %20 = getelementptr inbounds [8192 x i8], ptr %7, i64 0, i64 0
  %21 = call i64 @read(i32 noundef %19, ptr noundef %20, i64 noundef 8192)
  %22 = trunc i64 %21 to i32
  store i32 %22, ptr %9, align 4
  %23 = load i32, ptr %9, align 4
  %24 = icmp sle i32 %23, 0
  br i1 %24, label %25, label %26

25:                                               ; preds = %18
  br label %32

26:                                               ; preds = %18
  %27 = load i32, ptr %6, align 4
  %28 = getelementptr inbounds [8192 x i8], ptr %7, i64 0, i64 0
  %29 = load i32, ptr %9, align 4
  %30 = sext i32 %29 to i64
  %31 = call i32 @gnu_debuglink_crc32(i32 noundef %27, ptr noundef %28, i64 noundef %30)
  store i32 %31, ptr %6, align 4
  br label %18

32:                                               ; preds = %25
  %33 = load i32, ptr %5, align 4
  %34 = load i32, ptr %6, align 4
  %35 = icmp eq i32 %33, %34
  br i1 %35, label %36, label %38

36:                                               ; preds = %32
  %37 = load i32, ptr %8, align 4
  store i32 %37, ptr %3, align 4
  br label %41

38:                                               ; preds = %32
  %39 = load i32, ptr %8, align 4
  %40 = call i32 @close(i32 noundef %39)
  store i32 -1, ptr %3, align 4
  br label %41

41:                                               ; preds = %38, %36, %14
  %42 = load i32, ptr %3, align 4
  ret i32 %42
}