; Function Attrs: nounwind uwtable
define internal fastcc range(i32 -1, -2147483648) i32 @open_debug_file(ptr noundef %0, i32 noundef %1) unnamed_addr #1 {
  %3 = alloca [8192 x i8], align 16
  %4 = tail call i32 @pathmap_open(ptr noundef %0) #14
  %5 = icmp slt i32 %4, 0
  br i1 %5, label %30, label %6

6:                                                ; preds = %2
  %7 = tail call i64 @lseek64(i32 noundef %4, i64 noundef 0, i32 noundef 0) #14
  %8 = call i64 @read(i32 noundef %4, ptr noundef nonnull %3, i64 noundef 8192) #14
  %9 = trunc i64 %8 to i32
  %10 = icmp slt i32 %9, 1
  br i1 %10, label %._crit_edge, label %.lr.ph

.lr.ph:                                           ; preds = %6, %gnu_debuglink_crc32.exit
  %11 = phi i64 [ %24, %gnu_debuglink_crc32.exit ], [ %8, %6 ]
  %.01114 = phi i32 [ %.0.lcssa.i, %gnu_debuglink_crc32.exit ], [ 0, %6 ]
  %12 = and i64 %11, 2147483647
  %13 = getelementptr inbounds i8, ptr %3, i64 %12
  %.not = icmp eq i64 %12, 0
  br i1 %.not, label %gnu_debuglink_crc32.exit, label %.lr.ph.preheader.i

.lr.ph.preheader.i:                               ; preds = %.lr.ph
  %14 = xor i32 %.01114, -1
  br label %.lr.ph.i

.lr.ph.i:                                         ; preds = %.lr.ph.i, %.lr.ph.preheader.i
  %.011.i = phi i32 [ %20, %.lr.ph.i ], [ %14, %.lr.ph.preheader.i ]
  %.0910.i = phi ptr [ %21, %.lr.ph.i ], [ %3, %.lr.ph.preheader.i ]
  %15 = load i8, ptr %.0910.i, align 1
  %.0.tr.i = trunc i32 %.011.i to i8
  %.narrow.i = xor i8 %15, %.0.tr.i
  %16 = zext i8 %.narrow.i to i64
  %17 = getelementptr inbounds [256 x i32], ptr @gnu_debuglink_crc32.crc32_table, i64 0, i64 %16
  %18 = load i32, ptr %17, align 4
  %19 = lshr i32 %.011.i, 8
  %20 = xor i32 %18, %19
  %21 = getelementptr inbounds i8, ptr %.0910.i, i64 1
  %22 = icmp ult ptr %21, %13
  br i1 %22, label %.lr.ph.i, label %._crit_edge.loopexit.i, !llvm.loop !6

._crit_edge.loopexit.i:                           ; preds = %.lr.ph.i
  %23 = xor i32 %20, -1
  br label %gnu_debuglink_crc32.exit

gnu_debuglink_crc32.exit:                         ; preds = %.lr.ph, %._crit_edge.loopexit.i
  %.0.lcssa.i = phi i32 [ %.01114, %.lr.ph ], [ %23, %._crit_edge.loopexit.i ]
  %24 = call i64 @read(i32 noundef %4, ptr noundef nonnull %3, i64 noundef 8192) #14
  %25 = trunc i64 %24 to i32
  %26 = icmp slt i32 %25, 1
  br i1 %26, label %._crit_edge, label %.lr.ph

._crit_edge:                                      ; preds = %gnu_debuglink_crc32.exit, %6
  %.011.lcssa = phi i32 [ 0, %6 ], [ %.0.lcssa.i, %gnu_debuglink_crc32.exit ]
  %27 = icmp eq i32 %.011.lcssa, %1
  br i1 %27, label %30, label %28

28:                                               ; preds = %._crit_edge
  %29 = call i32 @close(i32 noundef %4) #14
  br label %30

30:                                               ; preds = %._crit_edge, %2, %28
  %.0 = phi i32 [ -1, %28 ], [ -1, %2 ], [ %4, %._crit_edge ]
  ret i32 %.0
}